; Function Attrs: nounwind uwtable
define ptr @l_Std_DHashMap_Internal_AssocList_get_x3f___at_Lean_Meta_Grind_Arith_CommRing_Stepwise_mkExprDecl___spec__6(ptr noundef %0, ptr noundef %1) local_unnamed_addr #1 {
  br label %3

3:                                                ; preds = %13, %2
  %.015 = phi ptr [ %1, %2 ], [ %19, %13 ]
  %4 = ptrtoint ptr %.015 to i64
  %5 = and i64 %4, 1
  %.not.i = icmp eq i64 %5, 0
  br i1 %.not.i, label %9, label %6

6:                                                ; preds = %3
  %7 = lshr i64 %4, 1
  %8 = trunc i64 %7 to i32
  br label %lean_obj_tag.exit

9:                                                ; preds = %3
  %10 = getelementptr i8, ptr %.015, i64 4
  %.val.i = load i32, ptr %10, align 4
  %11 = lshr i32 %.val.i, 24
  br label %lean_obj_tag.exit

lean_obj_tag.exit:                                ; preds = %6, %9
  %.0.i = phi i32 [ %8, %6 ], [ %11, %9 ]
  %12 = icmp eq i32 %.0.i, 0
  br i1 %12, label %.loopexit, label %13

13:                                               ; preds = %lean_obj_tag.exit
  %14 = getelementptr inbounds nuw i8, ptr %.015, i64 8
  %15 = load ptr, ptr %14, align 8, !tbaa !11
  %16 = getelementptr inbounds nuw i8, ptr %.015, i64 16
  %17 = load ptr, ptr %16, align 8, !tbaa !11
  %18 = getelementptr inbounds nuw i8, ptr %.015, i64 24
  %19 = load ptr, ptr %18, align 8, !tbaa !11
  %20 = tail call zeroext i8 @l_Lean_Grind_CommRing_beqExpr____x40_Init_Grind_CommRing_Poly___hyg_116_(ptr noundef %15, ptr noundef %0) #6
  %21 = icmp eq i8 %20, 0
  br i1 %21, label %3, label %22

22:                                               ; preds = %13
  %23 = ptrtoint ptr %17 to i64
  %24 = and i64 %23, 1
  %.not = icmp eq i64 %24, 0
  br i1 %.not, label %25, label %lean_inc.exit

25:                                               ; preds = %22
  %.val.i17 = load i32, ptr %17, align 4, !tbaa !6
  %26 = icmp sgt i32 %.val.i17, 0
  br i1 %26, label %27, label %29, !prof !5

27:                                               ; preds = %25
  %28 = add nuw i32 %.val.i17, 1
  store i32 %28, ptr %17, align 4, !tbaa !6
  br label %lean_inc.exit

29:                                               ; preds = %25
  %.not.i18 = icmp eq i32 %.val.i17, 0
  br i1 %.not.i18, label %lean_inc.exit, label %30

30:                                               ; preds = %29
  tail call void @lean_inc_ref_cold(ptr noundef nonnull %17) #6
  br label %lean_inc.exit

lean_inc.exit:                                    ; preds = %30, %29, %27, %22
  tail call void @lean_inc_heartbeat() #6
  %31 = tail call noalias ptr @mi_malloc_small(i64 noundef 16) #6
  %32 = icmp eq ptr %31, null
  br i1 %32, label %33, label %.thread

33:                                               ; preds = %lean_inc.exit
  tail call void @lean_internal_panic_out_of_memory() #7
  unreachable

.thread:                                          ; preds = %lean_inc.exit
  %34 = getelementptr inbounds nuw i8, ptr %31, i64 4
  store i32 1, ptr %31, align 4, !tbaa !6
  store i32 16842768, ptr %34, align 4
  %35 = getelementptr inbounds nuw i8, ptr %31, i64 8
  store ptr %17, ptr %35, align 8, !tbaa !11
  br label %.loopexit

.loopexit:                                        ; preds = %lean_obj_tag.exit, %.thread
  %.1 = phi ptr [ %31, %.thread ], [ inttoptr (i64 1 to ptr), %lean_obj_tag.exit ]
  ret ptr %.1
}